target datalayout = "e-m:e-p270:32:32-p271:32:32-p272:64:64-i64:64-i128:128-f80:128-n8:16:32:64-S128"
target triple = "x86_64-pc-linux-gnu"

%struct._ir_gdbjit_descriptor = type { i32, i32, ptr, ptr }
%struct._ir_gdbjit_code_entry = type { ptr, ptr, ptr, i64 }

@__jit_debug_descriptor = hidden global %struct._ir_gdbjit_descriptor { i32 1, i32 0, ptr null, ptr null }, align 8

; Function Attrs: nounwind uwtable
define hidden void @__jit_debug_register_code() #0 {
  call void asm sideeffect "", "~{dirflag},~{fpsr},~{flags}"() #7, !srcloc !4
  ret void
}

; Function Attrs: nounwind uwtable
define hidden void @ir_gdb_unregister_all() #0 {
  %1 = alloca ptr, align 8
  store i32 2, ptr getelementptr inbounds (%struct._ir_gdbjit_descriptor, ptr @__jit_debug_descriptor, i32 0, i32 1), align 4
  br label %2

2:                                                ; preds = %18, %0
  %3 = load ptr, ptr getelementptr inbounds (%struct._ir_gdbjit_descriptor, ptr @__jit_debug_descriptor, i32 0, i32 3), align 8
  store ptr %3, ptr %1, align 8
  %4 = icmp ne ptr %3, null
  br i1 %4, label %5, label %21

5:                                                ; preds = %2
  %6 = load ptr, ptr %1, align 8
  %7 = getelementptr inbounds %struct._ir_gdbjit_code_entry, ptr %6, i32 0, i32 0
  %8 = load ptr, ptr %7, align 8
  store ptr %8, ptr getelementptr inbounds (%struct._ir_gdbjit_descriptor, ptr @__jit_debug_descriptor, i32 0, i32 3), align 8
  %9 = load ptr, ptr %1, align 8
  %10 = getelementptr inbounds %struct._ir_gdbjit_code_entry, ptr %9, i32 0, i32 0
  %11 = load ptr, ptr %10, align 8
  %12 = icmp ne ptr %11, null
  br i1 %12, label %13, label %18

13:                                               ; preds = %5
  %14 = load ptr, ptr %1, align 8
  %15 = getelementptr inbounds %struct._ir_gdbjit_code_entry, ptr %14, i32 0, i32 0
  %16 = load ptr, ptr %15, align 8
  %17 = getelementptr inbounds %struct._ir_gdbjit_code_entry, ptr %16, i32 0, i32 1
  store ptr null, ptr %17, align 8
  br label %18

18:                                               ; preds = %13, %5
  %19 = load ptr, ptr %1, align 8
  store ptr %19, ptr getelementptr inbounds (%struct._ir_gdbjit_descriptor, ptr @__jit_debug_descriptor, i32 0, i32 2), align 8
  call void @__jit_debug_register_code()
  %20 = load ptr, ptr %1, align 8
  call void @free(ptr noundef %20) #7
  br label %2

21:                                               ; preds = %2
  ret void
}