; Function Attrs: nounwind uwtable
define hidden void @ir_gdb_unregister_all() local_unnamed_addr #0 {
  store i32 2, ptr getelementptr inbounds (%struct._ir_gdbjit_descriptor, ptr @__jit_debug_descriptor, i64 0, i32 1), align 4
  %1 = load ptr, ptr getelementptr inbounds (%struct._ir_gdbjit_descriptor, ptr @__jit_debug_descriptor, i64 0, i32 3), align 8
  %.not7 = icmp eq ptr %1, null
  br i1 %.not7, label %._crit_edge, label %.lr.ph

.lr.ph:                                           ; preds = %0, %6
  %2 = phi ptr [ %7, %6 ], [ %1, %0 ]
  %3 = load ptr, ptr %2, align 8
  store ptr %3, ptr getelementptr inbounds (%struct._ir_gdbjit_descriptor, ptr @__jit_debug_descriptor, i64 0, i32 3), align 8
  %.not6 = icmp eq ptr %3, null
  br i1 %.not6, label %6, label %4

4:                                                ; preds = %.lr.ph
  %5 = getelementptr inbounds i8, ptr %3, i64 8
  store ptr null, ptr %5, align 8
  br label %6

6:                                                ; preds = %4, %.lr.ph
  store ptr %2, ptr getelementptr inbounds (%struct._ir_gdbjit_descriptor, ptr @__jit_debug_descriptor, i64 0, i32 2), align 8
  tail call void asm sideeffect "", "~{dirflag},~{fpsr},~{flags}"() #10, !srcloc !4
  tail call void @free(ptr noundef nonnull %2) #10
  %7 = load ptr, ptr getelementptr inbounds (%struct._ir_gdbjit_descriptor, ptr @__jit_debug_descriptor, i64 0, i32 3), align 8
  %.not = icmp eq ptr %7, null
  br i1 %.not, label %._crit_edge, label %.lr.ph

._crit_edge:                                      ; preds = %6, %0
  ret void
}